; Function Attrs: nounwind uwtable
define ptr @Gia_FileSimpleRead(ptr noundef %0, i32 noundef %1, ptr noundef %2) local_unnamed_addr #0 {
  %4 = alloca i32, align 4
  call void @llvm.lifetime.start.p0(i64 4, ptr nonnull %4)
  %5 = tail call ptr @Abc_NamStart(i32 noundef 100, i32 noundef 16) #31
  br label %6

6:                                                ; preds = %Acb_Num2Name.exit.i, %3
  %.04.i = phi i32 [ 1, %3 ], [ %22, %Acb_Num2Name.exit.i ]
  switch i32 %.04.i, label %20 [
    i32 1, label %Acb_Num2Name.exit.i
    i32 2, label %7
    i32 3, label %8
    i32 4, label %9
    i32 5, label %10
    i32 6, label %11
    i32 7, label %12
    i32 8, label %13
    i32 9, label %14
    i32 10, label %15
    i32 11, label %16
    i32 12, label %17
    i32 13, label %18
    i32 14, label %19
    i32 15, label %Acb_VerilogStartNames.exit
  ]

7:                                                ; preds = %6
  br label %Acb_Num2Name.exit.i

8:                                                ; preds = %6
  br label %Acb_Num2Name.exit.i

9:                                                ; preds = %6
  br label %Acb_Num2Name.exit.i

10:                                               ; preds = %6
  br label %Acb_Num2Name.exit.i

11:                                               ; preds = %6
  br label %Acb_Num2Name.exit.i

12:                                               ; preds = %6
  br label %Acb_Num2Name.exit.i

13:                                               ; preds = %6
  br label %Acb_Num2Name.exit.i

14:                                               ; preds = %6
  br label %Acb_Num2Name.exit.i

15:                                               ; preds = %6
  br label %Acb_Num2Name.exit.i

16:                                               ; preds = %6
  br label %Acb_Num2Name.exit.i

17:                                               ; preds = %6
  br label %Acb_Num2Name.exit.i

18:                                               ; preds = %6
  br label %Acb_Num2Name.exit.i

19:                                               ; preds = %6
  br label %Acb_Num2Name.exit.i

20:                                               ; preds = %6
  br label %Acb_Num2Name.exit.i

Acb_Num2Name.exit.i:                              ; preds = %20, %19, %18, %17, %16, %15, %14, %13, %12, %11, %10, %9, %8, %7, %6
  %.0.i.i = phi ptr [ @.str.104, %7 ], [ @.str.144, %8 ], [ @.str.145, %9 ], [ @.str.146, %10 ], [ @.str.75, %11 ], [ @.str.76, %12 ], [ @.str.147, %13 ], [ @.str.148, %14 ], [ @.str.149, %15 ], [ @.str.150, %16 ], [ @.str.151, %17 ], [ @.str.152, %18 ], [ @.str.153, %19 ], [ null, %20 ], [ @.str.143, %6 ]
  %21 = call i32 @Abc_NamStrFindOrAdd(ptr noundef %5, ptr noundef %.0.i.i, ptr noundef nonnull %4) #31
  %22 = add nuw nsw i32 %.04.i, 1
  br label %6

Acb_VerilogStartNames.exit:                       ; preds = %6
  %23 = call i32 @Abc_NamStrFindOrAdd(ptr noundef %5, ptr noundef nonnull @.str.154, ptr noundef nonnull %4) #31
  call void @llvm.lifetime.end.p0(i64 4, ptr nonnull %4)
  %24 = call ptr @Acb_VerilogSimpleLex(ptr noundef %0, ptr noundef %5)
  %.not = icmp eq ptr %24, null
  br i1 %.not, label %27, label %25

25:                                               ; preds = %Acb_VerilogStartNames.exit
  %26 = call ptr @Gia_FileSimpleParse(ptr noundef nonnull %24, ptr noundef %5, i32 noundef %1, ptr noundef %2)
  br label %27

27:                                               ; preds = %Acb_VerilogStartNames.exit, %25
  %28 = phi ptr [ %26, %25 ], [ null, %Acb_VerilogStartNames.exit ]
  %.not.i = icmp eq ptr %0, null
  br i1 %.not.i, label %Abc_UtilStrsav.exit, label %29

29:                                               ; preds = %27
  %30 = call i64 @strlen(ptr noundef nonnull readonly dereferenceable(1) %0) #32
  %31 = add i64 %30, 1
  %32 = call noalias ptr @malloc(i64 noundef %31) #29
  %33 = call ptr @strcpy(ptr noundef nonnull dereferenceable(1) %32, ptr noundef nonnull readonly dereferenceable(1) %0) #31
  br label %Abc_UtilStrsav.exit

Abc_UtilStrsav.exit:                              ; preds = %27, %29
  %34 = phi ptr [ %32, %29 ], [ null, %27 ]
  %35 = getelementptr inbounds nuw i8, ptr %28, i64 8
  store ptr %34, ptr %35, align 8
  call void @Abc_NamDeref(ptr noundef %5) #31
  %36 = getelementptr inbounds nuw i8, ptr %24, i64 8
  %37 = load ptr, ptr %36, align 8
  %.not.i11 = icmp eq ptr %37, null
  br i1 %.not.i11, label %Vec_IntFree.exit, label %38

38:                                               ; preds = %Abc_UtilStrsav.exit
  call void @free(ptr noundef nonnull %37) #31
  br label %Vec_IntFree.exit

Vec_IntFree.exit:                                 ; preds = %Abc_UtilStrsav.exit, %38
  call void @free(ptr noundef nonnull %24) #31
  ret ptr %28
}